target datalayout = "e-m:e-p270:32:32-p271:32:32-p272:64:64-i64:64-i128:128-f80:128-n8:16:32:64-S128"
target triple = "x86_64-pc-linux-gnu"

%class.Register = type { i32 }
%class.XMMRegister = type { i32 }
%class.Address = type { %class.Register, %class.Register, %class.XMMRegister, i32, i32, i8, [3 x i8], %class.RelocationHolder }
%class.RelocationHolder = type { [40 x i8] }

@UseCompressedOops = external global i8, align 1
@g_assert_poison = external global ptr, align 8
@.str = private unnamed_addr constant [58 x i8] c"src/hotspot/cpu/x86/gc/shared/barrierSetAssembler_x86.cpp\00", align 1
@.str.4 = private unnamed_addr constant [16 x i8] c"Unexpected size\00", align 1

; Function Attrs: mustprogress nounwind uwtable
define linkonce_odr hidden noundef ptr @_ZNK16RelocationHolder5relocEv(ptr noundef nonnull align 8 dereferenceable(40) %0) #1 comdat align 2 {
  %2 = alloca ptr, align 8
  store ptr %0, ptr %2, align 8
  %3 = load ptr, ptr %2, align 8
  %4 = getelementptr inbounds %class.RelocationHolder, ptr %3, i32 0, i32 0
  %5 = getelementptr inbounds [40 x i8], ptr %4, i64 0, i64 0
  ret ptr %5
}

; Function Attrs: mustprogress nounwind uwtable
define linkonce_odr hidden void @_ZN16RelocationHolderC2ERKS_(ptr noundef nonnull align 8 dereferenceable(40) %0, ptr noundef nonnull align 8 dereferenceable(40) %1) unnamed_addr #1 comdat align 2 {
  %3 = alloca ptr, align 8
  %4 = alloca ptr, align 8
  store ptr %0, ptr %3, align 8
  store ptr %1, ptr %4, align 8
  %5 = load ptr, ptr %3, align 8
  %6 = load ptr, ptr %4, align 8
  %7 = call noundef ptr @_ZNK16RelocationHolder5relocEv(ptr noundef nonnull align 8 dereferenceable(40) %6)
  %8 = load ptr, ptr %7, align 8
  %9 = getelementptr inbounds ptr, ptr %8, i64 2
  %10 = load ptr, ptr %9, align 8
  call void %10(ptr noundef nonnull align 8 dereferenceable(20) %7, ptr noundef nonnull align 8 dereferenceable(40) %5)
  ret void
}

; Function Attrs: mustprogress nounwind uwtable
define linkonce_odr hidden void @_ZN7AddressC2ERKS_(ptr noundef nonnull align 8 dereferenceable(64) %0, ptr noundef nonnull align 8 dereferenceable(64) %1) unnamed_addr #1 comdat align 2 {
  %3 = alloca ptr, align 8
  %4 = alloca ptr, align 8
  store ptr %0, ptr %3, align 8
  store ptr %1, ptr %4, align 8
  %5 = load ptr, ptr %3, align 8
  %6 = getelementptr inbounds %class.Address, ptr %5, i32 0, i32 0
  %7 = load ptr, ptr %4, align 8
  %8 = getelementptr inbounds %class.Address, ptr %7, i32 0, i32 0
  call void @llvm.memcpy.p0.p0.i64(ptr align 8 %6, ptr align 8 %8, i64 21, i1 false)
  %9 = getelementptr inbounds %class.Address, ptr %5, i32 0, i32 7
  %10 = load ptr, ptr %4, align 8
  %11 = getelementptr inbounds %class.Address, ptr %10, i32 0, i32 7
  call void @_ZN16RelocationHolderC2ERKS_(ptr noundef nonnull align 8 dereferenceable(40) %9, ptr noundef nonnull align 8 dereferenceable(40) %11)
  ret void
}

; Function Attrs: mustprogress nounwind uwtable
define hidden void @_ZN19BarrierSetAssembler12copy_load_atEP14MacroAssemblerm9BasicTypem8Register7AddressS3_(ptr noundef nonnull align 8 dereferenceable(8) %0, ptr noundef %1, i64 noundef %2, i8 noundef zeroext %3, i64 noundef %4, i32 %5, ptr noundef %6, i32 %7) unnamed_addr #1 align 2 {
  %9 = alloca %class.Register, align 4
  %10 = alloca %class.Register, align 4
  %11 = alloca ptr, align 8
  %12 = alloca ptr, align 8
  %13 = alloca i64, align 8
  %14 = alloca i8, align 1
  %15 = alloca i64, align 8
  %16 = alloca ptr, align 8
  %17 = alloca %class.Register, align 4
  %18 = alloca %class.Address, align 8
  %19 = alloca %class.Register, align 4
  %20 = alloca %class.Address, align 8
  %21 = alloca %class.Register, align 4
  %22 = alloca %class.Address, align 8
  %23 = alloca %class.Register, align 4
  %24 = alloca %class.Address, align 8
  %25 = alloca %class.Register, align 4
  %26 = getelementptr inbounds %class.Register, ptr %9, i32 0, i32 0
  store i32 %5, ptr %26, align 4
  %27 = getelementptr inbounds %class.Register, ptr %10, i32 0, i32 0
  store i32 %7, ptr %27, align 4
  store ptr %0, ptr %11, align 8
  store ptr %1, ptr %12, align 8
  store i64 %2, ptr %13, align 8
  store i8 %3, ptr %14, align 1
  store i64 %4, ptr %15, align 8
  store ptr %6, ptr %16, align 8
  %28 = load i64, ptr %15, align 8
  switch i64 %28, label %45 [
    i64 1, label %29
    i64 2, label %33
    i64 4, label %37
    i64 8, label %41
  ]

29:                                               ; preds = %8
  %30 = load ptr, ptr %12, align 8
  call void @llvm.memcpy.p0.p0.i64(ptr align 4 %17, ptr align 4 %9, i64 4, i1 false)
  call void @_ZN7AddressC2ERKS_(ptr noundef nonnull align 8 dereferenceable(64) %18, ptr noundef nonnull align 8 dereferenceable(64) %6)
  %31 = getelementptr inbounds %class.Register, ptr %17, i32 0, i32 0
  %32 = load i32, ptr %31, align 4
  call void @_ZN9Assembler4movbE8Register7Address(ptr noundef nonnull align 8 dereferenceable(40) %30, i32 %32, ptr noundef %18)
  br label %49

33:                                               ; preds = %8
  %34 = load ptr, ptr %12, align 8
  call void @llvm.memcpy.p0.p0.i64(ptr align 4 %19, ptr align 4 %9, i64 4, i1 false)
  call void @_ZN7AddressC2ERKS_(ptr noundef nonnull align 8 dereferenceable(64) %20, ptr noundef nonnull align 8 dereferenceable(64) %6)
  %35 = getelementptr inbounds %class.Register, ptr %19, i32 0, i32 0
  %36 = load i32, ptr %35, align 4
  call void @_ZN9Assembler4movwE8Register7Address(ptr noundef nonnull align 8 dereferenceable(40) %34, i32 %36, ptr noundef %20)
  br label %49

37:                                               ; preds = %8
  %38 = load ptr, ptr %12, align 8
  call void @llvm.memcpy.p0.p0.i64(ptr align 4 %21, ptr align 4 %9, i64 4, i1 false)
  call void @_ZN7AddressC2ERKS_(ptr noundef nonnull align 8 dereferenceable(64) %22, ptr noundef nonnull align 8 dereferenceable(64) %6)
  %39 = getelementptr inbounds %class.Register, ptr %21, i32 0, i32 0
  %40 = load i32, ptr %39, align 4
  call void @_ZN9Assembler4movlE8Register7Address(ptr noundef nonnull align 8 dereferenceable(40) %38, i32 %40, ptr noundef %22)
  br label %49

41:                                               ; preds = %8
  %42 = load ptr, ptr %12, align 8
  call void @llvm.memcpy.p0.p0.i64(ptr align 4 %23, ptr align 4 %9, i64 4, i1 false)
  call void @_ZN7AddressC2ERKS_(ptr noundef nonnull align 8 dereferenceable(64) %24, ptr noundef nonnull align 8 dereferenceable(64) %6)
  %43 = getelementptr inbounds %class.Register, ptr %23, i32 0, i32 0
  %44 = load i32, ptr %43, align 4
  call void @_ZN9Assembler4movqE8Register7Address(ptr noundef nonnull align 8 dereferenceable(40) %42, i32 %44, ptr noundef %24)
  br label %49

45:                                               ; preds = %8
  br label %46

46:                                               ; preds = %45
  %47 = load ptr, ptr @g_assert_poison, align 8
  store i8 88, ptr %47, align 1
  call void (i32, ptr, i32, ptr, ...) @_Z12report_fatal11VMErrorTypePKciS1_z(i32 noundef -536870912, ptr noundef @.str, i32 noundef 227, ptr noundef @.str.4) #7
  unreachable

48:                                               ; No predecessors!
  br label %49

49:                                               ; preds = %48, %41, %37, %33, %29
  %50 = load i64, ptr %13, align 8
  %51 = and i64 %50, 16777216
  %52 = icmp ne i64 %51, 0
  br i1 %52, label %53, label %60

53:                                               ; preds = %49
  %54 = load i8, ptr @UseCompressedOops, align 1
  %55 = trunc i8 %54 to i1
  br i1 %55, label %56, label %60

56:                                               ; preds = %53
  %57 = load ptr, ptr %12, align 8
  call void @llvm.memcpy.p0.p0.i64(ptr align 4 %25, ptr align 4 %9, i64 4, i1 false)
  %58 = getelementptr inbounds %class.Register, ptr %25, i32 0, i32 0
  %59 = load i32, ptr %58, align 4
  call void @_ZN14MacroAssembler15decode_heap_oopE8Register(ptr noundef nonnull align 8 dereferenceable(40) %57, i32 %59)
  br label %60

60:                                               ; preds = %56, %53, %49
  ret void
}