; Function Attrs: mustprogress nounwind uwtable
define hidden void @_ZN19BarrierSetAssembler12copy_load_atEP14MacroAssemblerm9BasicTypem8Register7AddressS3_(ptr nocapture nonnull readnone align 8 %0, ptr noundef %1, i64 noundef %2, i8 zeroext %3, i64 noundef %4, i32 %5, ptr noundef %6, i32 %7) unnamed_addr #0 align 2 {
  %9 = alloca %class.Address, align 8
  %10 = alloca %class.Address, align 8
  %11 = alloca %class.Address, align 8
  %12 = alloca %class.Address, align 8
  switch i64 %4, label %37 [
    i64 1, label %13
    i64 2, label %19
    i64 4, label %25
    i64 8, label %31
  ]

13:                                               ; preds = %8
  call void @llvm.memcpy.p0.p0.i64(ptr noundef nonnull align 8 dereferenceable(21) %9, ptr noundef nonnull align 8 dereferenceable(21) %6, i64 21, i1 false)
  %14 = getelementptr inbounds i8, ptr %9, i64 24
  %15 = getelementptr inbounds i8, ptr %6, i64 24
  %16 = load ptr, ptr %15, align 8
  %17 = getelementptr inbounds i8, ptr %16, i64 16
  %18 = load ptr, ptr %17, align 8
  call void %18(ptr noundef nonnull align 8 dereferenceable(20) %15, ptr noundef nonnull align 8 dereferenceable(40) %14) #12
  call void @_ZN9Assembler4movbE8Register7Address(ptr noundef nonnull align 8 dereferenceable(40) %1, i32 %5, ptr noundef nonnull %9) #12
  br label %39

19:                                               ; preds = %8
  call void @llvm.memcpy.p0.p0.i64(ptr noundef nonnull align 8 dereferenceable(21) %10, ptr noundef nonnull align 8 dereferenceable(21) %6, i64 21, i1 false)
  %20 = getelementptr inbounds i8, ptr %10, i64 24
  %21 = getelementptr inbounds i8, ptr %6, i64 24
  %22 = load ptr, ptr %21, align 8
  %23 = getelementptr inbounds i8, ptr %22, i64 16
  %24 = load ptr, ptr %23, align 8
  call void %24(ptr noundef nonnull align 8 dereferenceable(20) %21, ptr noundef nonnull align 8 dereferenceable(40) %20) #12
  call void @_ZN9Assembler4movwE8Register7Address(ptr noundef nonnull align 8 dereferenceable(40) %1, i32 %5, ptr noundef nonnull %10) #12
  br label %39

25:                                               ; preds = %8
  call void @llvm.memcpy.p0.p0.i64(ptr noundef nonnull align 8 dereferenceable(21) %11, ptr noundef nonnull align 8 dereferenceable(21) %6, i64 21, i1 false)
  %26 = getelementptr inbounds i8, ptr %11, i64 24
  %27 = getelementptr inbounds i8, ptr %6, i64 24
  %28 = load ptr, ptr %27, align 8
  %29 = getelementptr inbounds i8, ptr %28, i64 16
  %30 = load ptr, ptr %29, align 8
  call void %30(ptr noundef nonnull align 8 dereferenceable(20) %27, ptr noundef nonnull align 8 dereferenceable(40) %26) #12
  call void @_ZN9Assembler4movlE8Register7Address(ptr noundef nonnull align 8 dereferenceable(40) %1, i32 %5, ptr noundef nonnull %11) #12
  br label %39

31:                                               ; preds = %8
  call void @llvm.memcpy.p0.p0.i64(ptr noundef nonnull align 8 dereferenceable(21) %12, ptr noundef nonnull align 8 dereferenceable(21) %6, i64 21, i1 false)
  %32 = getelementptr inbounds i8, ptr %12, i64 24
  %33 = getelementptr inbounds i8, ptr %6, i64 24
  %34 = load ptr, ptr %33, align 8
  %35 = getelementptr inbounds i8, ptr %34, i64 16
  %36 = load ptr, ptr %35, align 8
  call void %36(ptr noundef nonnull align 8 dereferenceable(20) %33, ptr noundef nonnull align 8 dereferenceable(40) %32) #12
  call void @_ZN9Assembler4movqE8Register7Address(ptr noundef nonnull align 8 dereferenceable(40) %1, i32 %5, ptr noundef nonnull %12) #12
  br label %39

37:                                               ; preds = %8
  %38 = load ptr, ptr @g_assert_poison, align 8
  store i8 88, ptr %38, align 1
  tail call void (i32, ptr, i32, ptr, ...) @_Z12report_fatal11VMErrorTypePKciS1_z(i32 noundef -536870912, ptr noundef nonnull @.str, i32 noundef 227, ptr noundef nonnull @.str.4) #13
  unreachable

39:                                               ; preds = %31, %25, %19, %13
  %40 = and i64 %2, 16777216
  %.not = icmp eq i64 %40, 0
  br i1 %.not, label %45, label %41

41:                                               ; preds = %39
  %42 = load i8, ptr @UseCompressedOops, align 1
  %43 = trunc i8 %42 to i1
  br i1 %43, label %44, label %45

44:                                               ; preds = %41
  call void @_ZN14MacroAssembler15decode_heap_oopE8Register(ptr noundef nonnull align 8 dereferenceable(40) %1, i32 %5) #12
  br label %45

45:                                               ; preds = %44, %41, %39
  ret void
}